; Function Attrs: nofree norecurse nosync nounwind memory(read, argmem: readwrite, inaccessiblemem: none) uwtable
define internal fastcc void @read_sbr_dtdf(i32 %.16.val, ptr noundef nonnull captures(none) %0, ptr noundef captures(none) %1) unnamed_addr #9 {
  %.not = icmp eq i32 %.16.val, 0
  %3 = getelementptr inbounds nuw i8, ptr %1, i64 28
  %4 = getelementptr inbounds nuw i8, ptr %1, i64 8
  %5 = load i32, ptr %4, align 8, !tbaa !119
  %6 = icmp sgt i32 %5, 0
  br i1 %.not, label %48, label %7

7:                                                ; preds = %2
  br i1 %6, label %.lr.ph, label %get_bits1_vector.exit

.lr.ph:                                           ; preds = %7
  %8 = getelementptr inbounds nuw i8, ptr %0, i64 16
  %9 = getelementptr inbounds nuw i8, ptr %0, i64 24
  %wide.trip.count = zext nneg i32 %5 to i64
  br label %10

10:                                               ; preds = %.lr.ph, %10
  %indvars.iv = phi i64 [ 0, %.lr.ph ], [ %indvars.iv.next, %10 ]
  %11 = load i32, ptr %8, align 8, !tbaa !35
  %12 = load ptr, ptr %0, align 8, !tbaa !49
  %13 = lshr i32 %11, 3
  %14 = zext nneg i32 %13 to i64
  %15 = getelementptr inbounds nuw i8, ptr %12, i64 %14
  %16 = load i8, ptr %15, align 1, !tbaa !9
  %17 = load i32, ptr %9, align 8, !tbaa !37
  %18 = icmp slt i32 %11, %17
  %19 = zext i1 %18 to i32
  %spec.select.i = add i32 %11, %19
  %20 = zext i8 %16 to i32
  %21 = and i32 %11, 7
  %22 = shl nuw nsw i32 %20, %21
  store i32 %spec.select.i, ptr %8, align 8, !tbaa !35
  %23 = trunc i32 %22 to i8
  %24 = lshr i8 %23, 7
  %25 = getelementptr inbounds nuw i8, ptr %3, i64 %indvars.iv
  store i8 %24, ptr %25, align 1, !tbaa !9
  %indvars.iv.next = add nuw nsw i64 %indvars.iv, 1
  %exitcond.not = icmp eq i64 %indvars.iv.next, %wide.trip.count
  br i1 %exitcond.not, label %get_bits1_vector.exit, label %10, !llvm.loop !117

get_bits1_vector.exit:                            ; preds = %10, %7
  %26 = getelementptr inbounds nuw i8, ptr %1, i64 37
  %27 = getelementptr inbounds nuw i8, ptr %1, i64 24
  %28 = load i32, ptr %27, align 8, !tbaa !122
  %29 = icmp sgt i32 %28, 0
  br i1 %29, label %.lr.ph4, label %get_bits1_vector.exit23

.lr.ph4:                                          ; preds = %get_bits1_vector.exit
  %30 = getelementptr inbounds nuw i8, ptr %0, i64 16
  %31 = getelementptr inbounds nuw i8, ptr %0, i64 24
  %wide.trip.count14 = zext nneg i32 %28 to i64
  br label %32

32:                                               ; preds = %.lr.ph4, %32
  %indvars.iv11 = phi i64 [ 0, %.lr.ph4 ], [ %indvars.iv.next12, %32 ]
  %33 = load i32, ptr %30, align 8, !tbaa !35
  %34 = load ptr, ptr %0, align 8, !tbaa !49
  %35 = lshr i32 %33, 3
  %36 = zext nneg i32 %35 to i64
  %37 = getelementptr inbounds nuw i8, ptr %34, i64 %36
  %38 = load i8, ptr %37, align 1, !tbaa !9
  %39 = load i32, ptr %31, align 8, !tbaa !37
  %40 = icmp slt i32 %33, %39
  %41 = zext i1 %40 to i32
  %spec.select.i28 = add i32 %33, %41
  %42 = zext i8 %38 to i32
  %43 = and i32 %33, 7
  %44 = shl nuw nsw i32 %42, %43
  store i32 %spec.select.i28, ptr %30, align 8, !tbaa !35
  %45 = trunc i32 %44 to i8
  %46 = lshr i8 %45, 7
  %47 = getelementptr inbounds nuw i8, ptr %26, i64 %indvars.iv11
  store i8 %46, ptr %47, align 1, !tbaa !9
  %indvars.iv.next12 = add nuw nsw i64 %indvars.iv11, 1
  %exitcond15.not = icmp eq i64 %indvars.iv.next12, %wide.trip.count14
  br i1 %exitcond15.not, label %get_bits1_vector.exit23, label %32, !llvm.loop !117

48:                                               ; preds = %2
  br i1 %6, label %.lr.ph6, label %get_bits1_vector.exit25

.lr.ph6:                                          ; preds = %48
  %49 = getelementptr inbounds nuw i8, ptr %0, i64 16
  %50 = getelementptr inbounds nuw i8, ptr %0, i64 24
  %wide.trip.count19 = zext nneg i32 %5 to i64
  br label %51

51:                                               ; preds = %.lr.ph6, %51
  %indvars.iv16 = phi i64 [ 0, %.lr.ph6 ], [ %indvars.iv.next17, %51 ]
  %52 = load i32, ptr %49, align 8, !tbaa !35
  %53 = load ptr, ptr %0, align 8, !tbaa !49
  %54 = lshr i32 %52, 3
  %55 = zext nneg i32 %54 to i64
  %56 = getelementptr inbounds nuw i8, ptr %53, i64 %55
  %57 = load i8, ptr %56, align 1, !tbaa !9
  %58 = load i32, ptr %50, align 8, !tbaa !37
  %59 = icmp slt i32 %52, %58
  %60 = zext i1 %59 to i32
  %spec.select.i29 = add i32 %52, %60
  %61 = zext i8 %57 to i32
  %62 = and i32 %52, 7
  %63 = shl nuw nsw i32 %61, %62
  store i32 %spec.select.i29, ptr %49, align 8, !tbaa !35
  %64 = trunc i32 %63 to i8
  %65 = lshr i8 %64, 7
  %66 = getelementptr inbounds nuw i8, ptr %3, i64 %indvars.iv16
  store i8 %65, ptr %66, align 1, !tbaa !9
  %indvars.iv.next17 = add nuw nsw i64 %indvars.iv16, 1
  %exitcond20.not = icmp eq i64 %indvars.iv.next17, %wide.trip.count19
  br i1 %exitcond20.not, label %get_bits1_vector.exit25, label %51, !llvm.loop !117

get_bits1_vector.exit25:                          ; preds = %51, %48
  %67 = getelementptr inbounds nuw i8, ptr %1, i64 37
  %68 = getelementptr inbounds nuw i8, ptr %1, i64 24
  %69 = load i32, ptr %68, align 8, !tbaa !122
  %70 = icmp sgt i32 %69, 0
  br i1 %70, label %.lr.ph8, label %get_bits1_vector.exit23

.lr.ph8:                                          ; preds = %get_bits1_vector.exit25
  %71 = getelementptr inbounds nuw i8, ptr %0, i64 16
  %72 = getelementptr inbounds nuw i8, ptr %0, i64 24
  %wide.trip.count24 = zext nneg i32 %69 to i64
  br label %73

73:                                               ; preds = %.lr.ph8, %73
  %indvars.iv21 = phi i64 [ 0, %.lr.ph8 ], [ %indvars.iv.next22, %73 ]
  %74 = load i32, ptr %71, align 8, !tbaa !35
  %75 = load ptr, ptr %0, align 8, !tbaa !49
  %76 = lshr i32 %74, 3
  %77 = zext nneg i32 %76 to i64
  %78 = getelementptr inbounds nuw i8, ptr %75, i64 %77
  %79 = load i8, ptr %78, align 1, !tbaa !9
  %80 = load i32, ptr %72, align 8, !tbaa !37
  %81 = icmp slt i32 %74, %80
  %82 = zext i1 %81 to i32
  %spec.select.i30 = add i32 %74, %82
  %83 = zext i8 %79 to i32
  %84 = and i32 %74, 7
  %85 = shl nuw nsw i32 %83, %84
  store i32 %spec.select.i30, ptr %71, align 8, !tbaa !35
  %86 = trunc i32 %85 to i8
  %87 = lshr i8 %86, 7
  %88 = getelementptr inbounds nuw i8, ptr %67, i64 %indvars.iv21
  store i8 %87, ptr %88, align 1, !tbaa !9
  %indvars.iv.next22 = add nuw nsw i64 %indvars.iv21, 1
  %exitcond25.not = icmp eq i64 %indvars.iv.next22, %wide.trip.count24
  br i1 %exitcond25.not, label %get_bits1_vector.exit23, label %73, !llvm.loop !117

get_bits1_vector.exit23:                          ; preds = %32, %73, %get_bits1_vector.exit, %get_bits1_vector.exit25
  ret void
}